; Function Attrs: mustprogress uwtable
define noundef double @_ZNK3g2o22EstimatePropagatorCostclEPNS_16OptimizableGraph4EdgeERKSt3setIPNS_10HyperGraph6VertexESt4lessIS7_ESaIS7_EEPNS1_6VertexE(ptr noundef nonnull readonly align 8 captures(none) dereferenceable(16) %0, ptr noundef %1, ptr noundef nonnull align 8 dereferenceable(48) %2, ptr noundef %3) unnamed_addr #5 align 2 {
  %5 = getelementptr inbounds nuw i8, ptr %0, i64 8
  %6 = load ptr, ptr %5, align 8, !tbaa !120
  %7 = tail call ptr @_ZNK3g2o15SparseOptimizer14findActiveEdgeEPKNS_16OptimizableGraph4EdgeE(ptr noundef nonnull align 8 dereferenceable(409) %6, ptr noundef %1)
  %8 = load ptr, ptr %5, align 8, !tbaa !120
  %9 = getelementptr inbounds nuw i8, ptr %8, i64 360
  %10 = load ptr, ptr %9, align 8, !tbaa !123
  %11 = icmp eq ptr %7, %10
  br i1 %11, label %17, label %12

12:                                               ; preds = %4
  %13 = load ptr, ptr %1, align 8, !tbaa !92
  %14 = getelementptr inbounds nuw i8, ptr %13, i64 152
  %15 = load ptr, ptr %14, align 8
  %16 = tail call noundef double %15(ptr noundef nonnull align 8 dereferenceable(176) %1, ptr noundef nonnull align 8 dereferenceable(48) %2, ptr noundef %3)
  br label %17

17:                                               ; preds = %4, %12
  %.0 = phi double [ %16, %12 ], [ 0x7FEFFFFFFFFFFFFF, %4 ]
  ret double %.0
}